target datalayout = "e-m:e-p270:32:32-p271:32:32-p272:64:64-i64:64-i128:128-f80:128-n8:16:32:64-S128"
target triple = "x86_64-pc-linux-gnu"

%struct.Curl_cftype = type { ptr, i32, i32, ptr, ptr, ptr, ptr, ptr, ptr, ptr, ptr, ptr, ptr, ptr, ptr, ptr }
%struct.Curl_cfilter = type { ptr, ptr, ptr, ptr, i32, i8 }
%struct.connectdata = type { %struct.Curl_llist_node, ptr, ptr, i64, ptr, i64, ptr, ptr, %struct.hostname, ptr, ptr, %struct.hostname, %struct.proxy_info, %struct.proxy_info, %struct.ip_quadruple, %struct.ip_quadruple, ptr, ptr, ptr, ptr, ptr, %struct.curltime, %struct.curltime, %struct.curltime, [2 x i32], [2 x ptr], [2 x ptr], [2 x ptr], %struct.anon, %struct.easy_pollset, %struct.ssl_primary_config, %struct.ssl_primary_config, %struct.ConnectBits, ptr, ptr, %struct.curltime, i32, i32, %struct.Curl_llist, i32, i32, %struct.ntlmdata, %struct.ntlmdata, %union.anon, ptr, i16, i32, i32, i32, i32, i16, i16, i8, i8, i8, i8, i8, i8, i8 }
%struct.Curl_llist_node = type { ptr, ptr, ptr, ptr }
%struct.hostname = type { ptr, ptr, ptr, ptr }
%struct.proxy_info = type { %struct.hostname, i32, i8, ptr, ptr }
%struct.ip_quadruple = type { [46 x i8], [46 x i8], i32, i32 }
%struct.anon = type { [2 x %struct.curltime], i32 }
%struct.easy_pollset = type { [5 x i32], i32, [5 x i8] }
%struct.ssl_primary_config = type { ptr, ptr, ptr, ptr, ptr, ptr, ptr, ptr, ptr, ptr, ptr, ptr, i8, i32, i8, i8 }
%struct.ConnectBits = type { i64 }
%struct.curltime = type { i64, i32 }
%struct.Curl_llist = type { ptr, ptr, ptr, i64 }
%struct.ntlmdata = type { i32, [8 x i8], i32, ptr }
%union.anon = type { %struct.ftp_conn }
%struct.ftp_conn = type { %struct.pingpong, ptr, ptr, ptr, ptr, ptr, ptr, ptr, i8, i64, ptr, i64, i32, i32, i32, i32, i32, i16, i8, i8, i8, i8, i8 }
%struct.pingpong = type { i64, i8, ptr, i64, i64, %struct.curltime, i64, %struct.dynbuf, %struct.dynbuf, i64, i64, ptr, ptr }
%struct.dynbuf = type { ptr, i64, i64, i64 }

; Function Attrs: nounwind uwtable
define internal void @socks_cf_get_host(ptr noundef %0, ptr noundef %1, ptr noundef %2, ptr noundef %3, ptr noundef %4) #0 {
  %6 = alloca ptr, align 8
  %7 = alloca ptr, align 8
  %8 = alloca ptr, align 8
  %9 = alloca ptr, align 8
  %10 = alloca ptr, align 8
  store ptr %0, ptr %6, align 8, !tbaa !4
  store ptr %1, ptr %7, align 8, !tbaa !9
  store ptr %2, ptr %8, align 8, !tbaa !71
  store ptr %3, ptr %9, align 8, !tbaa !71
  store ptr %4, ptr %10, align 8, !tbaa !73
  %11 = load ptr, ptr %6, align 8, !tbaa !4
  %12 = getelementptr inbounds nuw %struct.Curl_cfilter, ptr %11, i32 0, i32 5
  %13 = load i8, ptr %12, align 4
  %14 = and i8 %13, 1
  %15 = zext i8 %14 to i32
  %16 = icmp ne i32 %15, 0
  br i1 %16, label %41, label %17

17:                                               ; preds = %5
  %18 = load ptr, ptr %6, align 8, !tbaa !4
  %19 = getelementptr inbounds nuw %struct.Curl_cfilter, ptr %18, i32 0, i32 3
  %20 = load ptr, ptr %19, align 8, !tbaa !15
  %21 = getelementptr inbounds nuw %struct.connectdata, ptr %20, i32 0, i32 12
  %22 = getelementptr inbounds nuw %struct.proxy_info, ptr %21, i32 0, i32 0
  %23 = getelementptr inbounds nuw %struct.hostname, ptr %22, i32 0, i32 2
  %24 = load ptr, ptr %23, align 8, !tbaa !75
  %25 = load ptr, ptr %8, align 8, !tbaa !71
  store ptr %24, ptr %25, align 8, !tbaa !76
  %26 = load ptr, ptr %6, align 8, !tbaa !4
  %27 = getelementptr inbounds nuw %struct.Curl_cfilter, ptr %26, i32 0, i32 3
  %28 = load ptr, ptr %27, align 8, !tbaa !15
  %29 = getelementptr inbounds nuw %struct.connectdata, ptr %28, i32 0, i32 13
  %30 = getelementptr inbounds nuw %struct.proxy_info, ptr %29, i32 0, i32 0
  %31 = getelementptr inbounds nuw %struct.hostname, ptr %30, i32 0, i32 3
  %32 = load ptr, ptr %31, align 8, !tbaa !77
  %33 = load ptr, ptr %9, align 8, !tbaa !71
  store ptr %32, ptr %33, align 8, !tbaa !76
  %34 = load ptr, ptr %6, align 8, !tbaa !4
  %35 = getelementptr inbounds nuw %struct.Curl_cfilter, ptr %34, i32 0, i32 3
  %36 = load ptr, ptr %35, align 8, !tbaa !15
  %37 = getelementptr inbounds nuw %struct.connectdata, ptr %36, i32 0, i32 12
  %38 = getelementptr inbounds nuw %struct.proxy_info, ptr %37, i32 0, i32 1
  %39 = load i32, ptr %38, align 8, !tbaa !78
  %40 = load ptr, ptr %10, align 8, !tbaa !73
  store i32 %39, ptr %40, align 4, !tbaa !22
  br label %56

41:                                               ; preds = %5
  %42 = load ptr, ptr %6, align 8, !tbaa !4
  %43 = getelementptr inbounds nuw %struct.Curl_cfilter, ptr %42, i32 0, i32 1
  %44 = load ptr, ptr %43, align 8, !tbaa !26
  %45 = getelementptr inbounds nuw %struct.Curl_cfilter, ptr %44, i32 0, i32 0
  %46 = load ptr, ptr %45, align 8, !tbaa !27
  %47 = getelementptr inbounds nuw %struct.Curl_cftype, ptr %46, i32 0, i32 7
  %48 = load ptr, ptr %47, align 8, !tbaa !79
  %49 = load ptr, ptr %6, align 8, !tbaa !4
  %50 = getelementptr inbounds nuw %struct.Curl_cfilter, ptr %49, i32 0, i32 1
  %51 = load ptr, ptr %50, align 8, !tbaa !26
  %52 = load ptr, ptr %7, align 8, !tbaa !9
  %53 = load ptr, ptr %8, align 8, !tbaa !71
  %54 = load ptr, ptr %9, align 8, !tbaa !71
  %55 = load ptr, ptr %10, align 8, !tbaa !73
  call void %48(ptr noundef %51, ptr noundef %52, ptr noundef %53, ptr noundef %54, ptr noundef %55)
  br label %56

56:                                               ; preds = %41, %17
  ret void
}