; Function Attrs: nounwind uwtable
define internal void @socks_cf_get_host(ptr noundef readonly captures(none) %0, ptr noundef %1, ptr noundef %2, ptr noundef %3, ptr noundef %4) #0 {
  %6 = getelementptr inbounds nuw i8, ptr %0, i64 36
  %7 = load i8, ptr %6, align 4
  %8 = and i8 %7, 1
  %.not = icmp eq i8 %8, 0
  br i1 %.not, label %9, label %18

9:                                                ; preds = %5
  %10 = getelementptr inbounds nuw i8, ptr %0, i64 24
  %11 = load ptr, ptr %10, align 8, !tbaa !14
  %12 = getelementptr inbounds nuw i8, ptr %11, i64 184
  %13 = load ptr, ptr %12, align 8, !tbaa !141
  store ptr %13, ptr %2, align 8, !tbaa !28
  %14 = getelementptr inbounds nuw i8, ptr %11, i64 248
  %15 = load ptr, ptr %14, align 8, !tbaa !142
  store ptr %15, ptr %3, align 8, !tbaa !28
  %16 = getelementptr inbounds nuw i8, ptr %11, i64 200
  %17 = load i32, ptr %16, align 8, !tbaa !143
  store i32 %17, ptr %4, align 4, !tbaa !121
  br label %24

18:                                               ; preds = %5
  %19 = getelementptr inbounds nuw i8, ptr %0, i64 8
  %20 = load ptr, ptr %19, align 8, !tbaa !16
  %21 = load ptr, ptr %20, align 8, !tbaa !17
  %22 = getelementptr inbounds nuw i8, ptr %21, i64 48
  %23 = load ptr, ptr %22, align 8, !tbaa !144
  tail call void %23(ptr noundef nonnull %20, ptr noundef %1, ptr noundef %2, ptr noundef %3, ptr noundef %4) #7
  br label %24

24:                                               ; preds = %18, %9
  ret void
}